; Function Attrs: mustprogress uwtable
define hidden void @_ZN3smt5setup23setup_special_relationsEv(ptr nocapture noundef nonnull readonly align 8 dereferenceable(33) %this) local_unnamed_addr #4 align 2 {
entry:
  %0 = load ptr, ptr %this, align 8
  %call = tail call noalias noundef ptr @_ZN6memory8allocateEm(i64 noundef 152)
  %1 = load ptr, ptr %this, align 8
  %m_manager = getelementptr inbounds i8, ptr %this, i64 8
  %2 = load ptr, ptr %m_manager, align 8
  tail call void @_ZN3smt24theory_special_relationsC1ERNS_7contextER11ast_manager(ptr noundef nonnull align 8 dereferenceable(145) %call, ptr noundef nonnull align 8 dereferenceable(11616) %1, ptr noundef nonnull align 8 dereferenceable(976) %2)
  tail call void @_ZN3smt7context15register_pluginEPNS_6theoryE(ptr noundef nonnull align 8 dereferenceable(11616) %0, ptr noundef nonnull %call)
  ret void
}